target datalayout = "e-m:e-p270:32:32-p271:32:32-p272:64:64-i64:64-i128:128-f80:128-n8:16:32:64-S128"
target triple = "x86_64-pc-linux-gnu"

; Function Attrs: mustprogress nounwind ssp uwtable
define internal void @_ZN6open3d4core6kernelL26CPULogicalAndElementKernelIjbEEvPKvS4_Pv(ptr noundef %0, ptr noundef %1, ptr noundef %2) #3 {
  %4 = alloca ptr, align 8
  %5 = alloca ptr, align 8
  %6 = alloca ptr, align 8
  store ptr %0, ptr %4, align 8, !tbaa !17
  store ptr %1, ptr %5, align 8, !tbaa !17
  store ptr %2, ptr %6, align 8, !tbaa !17
  %7 = load ptr, ptr %4, align 8, !tbaa !17
  %8 = load i32, ptr %7, align 4, !tbaa !57
  %9 = icmp ne i32 %8, 0
  br i1 %9, label %10, label %14

10:                                               ; preds = %3
  %11 = load ptr, ptr %5, align 8, !tbaa !17
  %12 = load i32, ptr %11, align 4, !tbaa !57
  %13 = icmp ne i32 %12, 0
  br label %14

14:                                               ; preds = %10, %3
  %15 = phi i1 [ false, %3 ], [ %13, %10 ]
  %16 = load ptr, ptr %6, align 8, !tbaa !17
  %17 = zext i1 %15 to i8
  store i8 %17, ptr %16, align 1, !tbaa !131
  ret void
}